target datalayout = "e-m:e-p270:32:32-p271:32:32-p272:64:64-i64:64-i128:128-f80:128-n8:16:32:64-S128"
target triple = "x86_64-pc-linux-gnu"

%struct.ec_group_st = type { ptr, ptr, %struct.bignum_st, %struct.bignum_st, i32, ptr, %struct.bignum_st, %struct.bignum_st, %struct.bignum_st, i32, ptr, %struct.bignum_st }
%struct.bignum_st = type { ptr, i32, i32, i32, i32 }
%struct.ec_point_st = type { ptr, %struct.bignum_st, %struct.bignum_st, %struct.bignum_st }

@.str = private unnamed_addr constant [118 x i8] c"generated/home/dtcxzyw/WorkSpace/Projects/compilers/llvm-opt-benchmark/bench/libquic/libquic/boringssl/crypto/ec/ec.c\00", align 1

; Function Attrs: nounwind uwtable
define hidden i32 @EC_POINTs_make_affine(ptr noundef %0, i64 noundef %1, ptr noundef %2, ptr noundef %3) #1 {
  %5 = alloca i32, align 4
  %6 = alloca ptr, align 8
  %7 = alloca i64, align 8
  %8 = alloca ptr, align 8
  %9 = alloca ptr, align 8
  %10 = alloca i64, align 8
  %11 = alloca i32, align 4
  store ptr %0, ptr %6, align 8, !tbaa !13
  store i64 %1, ptr %7, align 8, !tbaa !52
  store ptr %2, ptr %8, align 8, !tbaa !54
  store ptr %3, ptr %9, align 8, !tbaa !24
  call void @llvm.lifetime.start.p0(i64 8, ptr %10) #7
  store i64 0, ptr %10, align 8, !tbaa !52
  br label %12

12:                                               ; preds = %29, %4
  %13 = load i64, ptr %10, align 8, !tbaa !52
  %14 = load i64, ptr %7, align 8, !tbaa !52
  %15 = icmp ult i64 %13, %14
  br i1 %15, label %16, label %32

16:                                               ; preds = %12
  %17 = load ptr, ptr %6, align 8, !tbaa !13
  %18 = getelementptr inbounds nuw %struct.ec_group_st, ptr %17, i32 0, i32 0
  %19 = load ptr, ptr %18, align 8, !tbaa !15
  %20 = load ptr, ptr %8, align 8, !tbaa !54
  %21 = load i64, ptr %10, align 8, !tbaa !52
  %22 = getelementptr inbounds nuw ptr, ptr %20, i64 %21
  %23 = load ptr, ptr %22, align 8, !tbaa !29
  %24 = getelementptr inbounds nuw %struct.ec_point_st, ptr %23, i32 0, i32 0
  %25 = load ptr, ptr %24, align 8, !tbaa !31
  %26 = icmp ne ptr %19, %25
  br i1 %26, label %27, label %28

27:                                               ; preds = %16
  call void @ERR_put_error(i32 noundef 15, i32 noundef 0, i32 noundef 106, ptr noundef @.str, i32 noundef 802)
  store i32 0, ptr %5, align 4
  store i32 1, ptr %11, align 4
  br label %38

28:                                               ; preds = %16
  br label %29

29:                                               ; preds = %28
  %30 = load i64, ptr %10, align 8, !tbaa !52
  %31 = add i64 %30, 1
  store i64 %31, ptr %10, align 8, !tbaa !52
  br label %12, !llvm.loop !56

32:                                               ; preds = %12
  %33 = load ptr, ptr %6, align 8, !tbaa !13
  %34 = load i64, ptr %7, align 8, !tbaa !52
  %35 = load ptr, ptr %8, align 8, !tbaa !54
  %36 = load ptr, ptr %9, align 8, !tbaa !24
  %37 = call i32 @ec_GFp_simple_points_make_affine(ptr noundef %33, i64 noundef %34, ptr noundef %35, ptr noundef %36)
  store i32 %37, ptr %5, align 4
  store i32 1, ptr %11, align 4
  br label %38

38:                                               ; preds = %32, %27
  call void @llvm.lifetime.end.p0(i64 8, ptr %10) #7
  %39 = load i32, ptr %5, align 4
  ret i32 %39
}