; Function Attrs: nounwind uwtable
define hidden i32 @EC_POINTs_make_affine(ptr noundef %0, i64 noundef %1, ptr noundef %2, ptr noundef %3) local_unnamed_addr #1 {
  %.not13 = icmp eq i64 %1, 0
  br i1 %.not13, label %._crit_edge, label %.lr.ph

.lr.ph:                                           ; preds = %4
  %5 = load ptr, ptr %0, align 8, !tbaa !11
  br label %8

6:                                                ; preds = %8
  %7 = add nuw i64 %.012, 1
  %exitcond.not = icmp eq i64 %7, %1
  br i1 %exitcond.not, label %._crit_edge, label %8, !llvm.loop !38

8:                                                ; preds = %.lr.ph, %6
  %.012 = phi i64 [ 0, %.lr.ph ], [ %7, %6 ]
  %9 = getelementptr inbounds nuw ptr, ptr %2, i64 %.012
  %10 = load ptr, ptr %9, align 8, !tbaa !39
  %11 = load ptr, ptr %10, align 8, !tbaa !23
  %.not = icmp eq ptr %5, %11
  br i1 %.not, label %6, label %12

12:                                               ; preds = %8
  tail call void @ERR_put_error(i32 noundef 15, i32 noundef 0, i32 noundef 106, ptr noundef nonnull @.str, i32 noundef 802) #11
  br label %14

._crit_edge:                                      ; preds = %6, %4
  %13 = tail call i32 @ec_GFp_simple_points_make_affine(ptr noundef %0, i64 noundef %1, ptr noundef %2, ptr noundef %3) #11
  br label %14

14:                                               ; preds = %._crit_edge, %12
  %.010 = phi i32 [ 0, %12 ], [ %13, %._crit_edge ]
  ret i32 %.010
}